; Function Attrs: nounwind uwtable
define ptr @l_Lean_Compiler_LCNF_LambdaLifting_mkAuxDecl_go___boxed(ptr noundef %0, ptr noundef %1, ptr noundef %2, ptr noundef %3, ptr noundef %4, ptr noundef %5, ptr noundef %6, ptr noundef %7, ptr noundef %8, ptr noundef %9, ptr noundef %10) local_unnamed_addr #0 {
  %12 = ptrtoint ptr %3 to i64
  %13 = lshr i64 %12, 1
  %14 = trunc i64 %13 to i8
  %15 = and i64 %12, 1
  %.not = icmp eq i64 %15, 0
  br i1 %.not, label %16, label %lean_dec.exit22

16:                                               ; preds = %11
  %17 = load i32, ptr %3, align 4, !tbaa !8
  %18 = icmp sgt i32 %17, 1
  br i1 %18, label %19, label %21, !prof !11

19:                                               ; preds = %16
  %20 = add nsw i32 %17, -1
  store i32 %20, ptr %3, align 4, !tbaa !8
  br label %lean_dec.exit22

21:                                               ; preds = %16
  %.not.i = icmp eq i32 %17, 0
  br i1 %.not.i, label %lean_dec.exit22, label %22

22:                                               ; preds = %21
  tail call void @lean_dec_ref_cold(ptr noundef nonnull %3) #5
  br label %lean_dec.exit22

lean_dec.exit22:                                  ; preds = %22, %21, %19, %11
  %23 = tail call ptr @l_Lean_Compiler_LCNF_LambdaLifting_mkAuxDecl_go(ptr noundef %0, ptr noundef %1, ptr noundef %2, i8 noundef zeroext %14, ptr noundef %4, ptr noundef %5, ptr noundef %6, ptr noundef %7, ptr noundef %8, ptr noundef %9, ptr noundef %10)
  %24 = ptrtoint ptr %9 to i64
  %25 = and i64 %24, 1
  %.not33 = icmp eq i64 %25, 0
  br i1 %.not33, label %26, label %lean_dec.exit21

26:                                               ; preds = %lean_dec.exit22
  %27 = load i32, ptr %9, align 4, !tbaa !8
  %28 = icmp sgt i32 %27, 1
  br i1 %28, label %29, label %31, !prof !11

29:                                               ; preds = %26
  %30 = add nsw i32 %27, -1
  store i32 %30, ptr %9, align 4, !tbaa !8
  br label %lean_dec.exit21

31:                                               ; preds = %26
  %.not.i23 = icmp eq i32 %27, 0
  br i1 %.not.i23, label %lean_dec.exit21, label %32

32:                                               ; preds = %31
  tail call void @lean_dec_ref_cold(ptr noundef nonnull %9) #5
  br label %lean_dec.exit21

lean_dec.exit21:                                  ; preds = %32, %31, %29, %lean_dec.exit22
  %33 = ptrtoint ptr %8 to i64
  %34 = and i64 %33, 1
  %.not34 = icmp eq i64 %34, 0
  br i1 %.not34, label %35, label %lean_dec.exit20

35:                                               ; preds = %lean_dec.exit21
  %36 = load i32, ptr %8, align 4, !tbaa !8
  %37 = icmp sgt i32 %36, 1
  br i1 %37, label %38, label %40, !prof !11

38:                                               ; preds = %35
  %39 = add nsw i32 %36, -1
  store i32 %39, ptr %8, align 4, !tbaa !8
  br label %lean_dec.exit20

40:                                               ; preds = %35
  %.not.i25 = icmp eq i32 %36, 0
  br i1 %.not.i25, label %lean_dec.exit20, label %41

41:                                               ; preds = %40
  tail call void @lean_dec_ref_cold(ptr noundef nonnull %8) #5
  br label %lean_dec.exit20

lean_dec.exit20:                                  ; preds = %41, %40, %38, %lean_dec.exit21
  %42 = ptrtoint ptr %7 to i64
  %43 = and i64 %42, 1
  %.not35 = icmp eq i64 %43, 0
  br i1 %.not35, label %44, label %lean_dec.exit19

44:                                               ; preds = %lean_dec.exit20
  %45 = load i32, ptr %7, align 4, !tbaa !8
  %46 = icmp sgt i32 %45, 1
  br i1 %46, label %47, label %49, !prof !11

47:                                               ; preds = %44
  %48 = add nsw i32 %45, -1
  store i32 %48, ptr %7, align 4, !tbaa !8
  br label %lean_dec.exit19

49:                                               ; preds = %44
  %.not.i27 = icmp eq i32 %45, 0
  br i1 %.not.i27, label %lean_dec.exit19, label %50

50:                                               ; preds = %49
  tail call void @lean_dec_ref_cold(ptr noundef nonnull %7) #5
  br label %lean_dec.exit19

lean_dec.exit19:                                  ; preds = %50, %49, %47, %lean_dec.exit20
  %51 = ptrtoint ptr %6 to i64
  %52 = and i64 %51, 1
  %.not36 = icmp eq i64 %52, 0
  br i1 %.not36, label %53, label %lean_dec.exit18

53:                                               ; preds = %lean_dec.exit19
  %54 = load i32, ptr %6, align 4, !tbaa !8
  %55 = icmp sgt i32 %54, 1
  br i1 %55, label %56, label %58, !prof !11

56:                                               ; preds = %53
  %57 = add nsw i32 %54, -1
  store i32 %57, ptr %6, align 4, !tbaa !8
  br label %lean_dec.exit18

58:                                               ; preds = %53
  %.not.i29 = icmp eq i32 %54, 0
  br i1 %.not.i29, label %lean_dec.exit18, label %59

59:                                               ; preds = %58
  tail call void @lean_dec_ref_cold(ptr noundef nonnull %6) #5
  br label %lean_dec.exit18

lean_dec.exit18:                                  ; preds = %59, %58, %56, %lean_dec.exit19
  %60 = ptrtoint ptr %5 to i64
  %61 = and i64 %60, 1
  %.not37 = icmp eq i64 %61, 0
  br i1 %.not37, label %62, label %lean_dec.exit

62:                                               ; preds = %lean_dec.exit18
  %63 = load i32, ptr %5, align 4, !tbaa !8
  %64 = icmp sgt i32 %63, 1
  br i1 %64, label %65, label %67, !prof !11

65:                                               ; preds = %62
  %66 = add nsw i32 %63, -1
  store i32 %66, ptr %5, align 4, !tbaa !8
  br label %lean_dec.exit

67:                                               ; preds = %62
  %.not.i31 = icmp eq i32 %63, 0
  br i1 %.not.i31, label %lean_dec.exit, label %68

68:                                               ; preds = %67
  tail call void @lean_dec_ref_cold(ptr noundef nonnull %5) #5
  br label %lean_dec.exit

lean_dec.exit:                                    ; preds = %68, %67, %65, %lean_dec.exit18
  ret ptr %23
}